; ModuleID = '38/295.c'
source_filename = "38/295.c"
target datalayout = "e-m:e-p270:32:32-p271:32:32-p272:64:64-i64:64-f80:128-n8:16:32:64-S128"
target triple = "x86_64-pc-linux-gnu"

@.str = private unnamed_addr constant [3 x i8] c"%d\00", align 1
@.str.1 = private unnamed_addr constant [4 x i8] c"%lf\00", align 1
@.str.2 = private unnamed_addr constant [6 x i8] c"%.5f\0A\00", align 1

; Function Attrs: noinline nounwind uwtable
define dso_local i32 @main(i32 %0, i8** %1) #0 {
  %3 = alloca i32, align 4
  %4 = alloca i32, align 4
  %5 = alloca i8**, align 8
  %6 = alloca i32, align 4
  %7 = alloca double, align 8
  %8 = alloca i32, align 4
  %9 = alloca i32, align 4
  %10 = alloca [100 x double], align 16
  %11 = alloca double, align 8
  %12 = alloca double, align 8
  %13 = alloca double, align 8
  %14 = alloca i32, align 4
  %15 = alloca i32, align 4
  store i32 0, i32* %3, align 4
  store i32 %0, i32* %4, align 4
  store i8** %1, i8*** %5, align 8
  %16 = call i32 (i8*, ...) @__isoc99_scanf(i8* getelementptr inbounds ([3 x i8], [3 x i8]* @.str, i64 0, i64 0), i32* %6)
  store i32 0, i32* %8, align 4
  br label %17

17:                                               ; preds = %71, %2
  %18 = load i32, i32* %8, align 4
  %19 = load i32, i32* %6, align 4
  %20 = icmp slt i32 %18, %19
  br i1 %20, label %21, label %74

21:                                               ; preds = %17
  store double 0.000000e+00, double* %11, align 8
  store double 0.000000e+00, double* %12, align 8
  %22 = call i32 (i8*, ...) @__isoc99_scanf(i8* getelementptr inbounds ([3 x i8], [3 x i8]* @.str, i64 0, i64 0), i32* %9)
  store i32 0, i32* %14, align 4
  br label %23

23:                                               ; preds = %38, %21
  %24 = load i32, i32* %14, align 4
  %25 = load i32, i32* %9, align 4
  %26 = icmp slt i32 %24, %25
  br i1 %26, label %27, label %41

27:                                               ; preds = %23
  %28 = load i32, i32* %14, align 4
  %29 = sext i32 %28 to i64
  %30 = getelementptr inbounds [100 x double], [100 x double]* %10, i64 0, i64 %29
  %31 = call i32 (i8*, ...) @__isoc99_scanf(i8* getelementptr inbounds ([4 x i8], [4 x i8]* @.str.1, i64 0, i64 0), double* %30)
  %32 = load double, double* %11, align 8
  %33 = load i32, i32* %14, align 4
  %34 = sext i32 %33 to i64
  %35 = getelementptr inbounds [100 x double], [100 x double]* %10, i64 0, i64 %34
  %36 = load double, double* %35, align 8
  %37 = fadd double %32, %36
  store double %37, double* %11, align 8
  br label %38

38:                                               ; preds = %27
  %39 = load i32, i32* %14, align 4
  %40 = add nsw i32 %39, 1
  store i32 %40, i32* %14, align 4
  br label %23

41:                                               ; preds = %23
  %42 = load double, double* %11, align 8
  %43 = load i32, i32* %9, align 4
  %44 = sitofp i32 %43 to double
  %45 = fdiv double %42, %44
  store double %45, double* %13, align 8
  store i32 0, i32* %15, align 4
  br label %46

46:                                               ; preds = %60, %41
  %47 = load i32, i32* %15, align 4
  %48 = load i32, i32* %9, align 4
  %49 = icmp slt i32 %47, %48
  br i1 %49, label %50, label %63

50:                                               ; preds = %46
  %51 = load double, double* %12, align 8
  %52 = load i32, i32* %15, align 4
  %53 = sext i32 %52 to i64
  %54 = getelementptr inbounds [100 x double], [100 x double]* %10, i64 0, i64 %53
  %55 = load double, double* %54, align 8
  %56 = load double, double* %13, align 8
  %57 = fsub double %55, %56
  %58 = call double @pow(double %57, double 2.000000e+00) #3
  %59 = fadd double %51, %58
  store double %59, double* %12, align 8
  br label %60

60:                                               ; preds = %50
  %61 = load i32, i32* %15, align 4
  %62 = add nsw i32 %61, 1
  store i32 %62, i32* %15, align 4
  br label %46

63:                                               ; preds = %46
  %64 = load double, double* %12, align 8
  %65 = load i32, i32* %9, align 4
  %66 = sitofp i32 %65 to double
  %67 = fdiv double %64, %66
  %68 = call double @sqrt(double %67) #3
  store double %68, double* %7, align 8
  %69 = load double, double* %7, align 8
  %70 = call i32 (i8*, ...) @printf(i8* getelementptr inbounds ([6 x i8], [6 x i8]* @.str.2, i64 0, i64 0), double %69)
  br label %71

71:                                               ; preds = %63
  %72 = load i32, i32* %8, align 4
  %73 = add nsw i32 %72, 1
  store i32 %73, i32* %8, align 4
  br label %17

74:                                               ; preds = %17
  ret i32 0
}

declare dso_local i32 @__isoc99_scanf(i8*, ...) #1

; Function Attrs: nounwind
declare dso_local double @pow(double, double) #2

; Function Attrs: nounwind
declare dso_local double @sqrt(double) #2

declare dso_local i32 @printf(i8*, ...) #1


!llvm.module.flags = !{!0}
!llvm.ident = !{!1}

!0 = !{i32 1, !"wchar_size", i32 4}
!1 = !{!"clang version 10.0.0-4ubuntu1 "}
